target datalayout = "e-m:e-p270:32:32-p271:32:32-p272:64:64-i64:64-i128:128-f80:128-n8:16:32:64-S128"
target triple = "x86_64-pc-linux-gnu"

@ett_megaco_raw_text = internal global i32 0, align 4
@.str.351 = private unnamed_addr constant [49 x i8] c"-------------- (RAW text output) ---------------\00", align 1

; Function Attrs: null_pointer_is_valid sspstrong uwtable
define internal void @tvb_raw_text_add(ptr noundef %0, ptr noundef %1) #0 {
  %3 = alloca ptr, align 8
  %4 = alloca ptr, align 8
  %5 = alloca i32, align 4
  %6 = alloca i32, align 4
  %7 = alloca i32, align 4
  %8 = alloca ptr, align 8
  store ptr %0, ptr %3, align 8
  store ptr %1, ptr %4, align 8
  call void @llvm.lifetime.start.p0(i64 4, ptr %5) #12
  call void @llvm.lifetime.start.p0(i64 4, ptr %6) #12
  call void @llvm.lifetime.start.p0(i64 4, ptr %7) #12
  call void @llvm.lifetime.start.p0(i64 8, ptr %8) #12
  store i32 0, ptr %5, align 4
  %9 = load ptr, ptr %4, align 8
  %10 = icmp ne ptr %9, null
  br i1 %10, label %11, label %36

11:                                               ; preds = %2
  %12 = load ptr, ptr %4, align 8
  %13 = load ptr, ptr %3, align 8
  %14 = load i32, ptr @ett_megaco_raw_text, align 4
  %15 = call ptr @proto_tree_add_subtree(ptr noundef %12, ptr noundef %13, i32 noundef 0, i32 noundef -1, i32 noundef %14, ptr noundef null, ptr noundef @.str.351)
  store ptr %15, ptr %8, align 8
  br label %16

16:                                               ; preds = %33, %11
  %17 = load ptr, ptr %3, align 8
  %18 = load i32, ptr %5, align 4
  %19 = call i32 @tvb_find_line_end(ptr noundef %17, i32 noundef %18, i32 noundef -1, ptr noundef %6, i1 noundef zeroext false)
  store i32 %19, ptr %7, align 4
  %20 = load ptr, ptr %8, align 8
  %21 = load ptr, ptr %3, align 8
  %22 = load i32, ptr %5, align 4
  %23 = load i32, ptr %7, align 4
  %24 = call ptr @proto_tree_add_format_wsp_text(ptr noundef %20, ptr noundef %21, i32 noundef %22, i32 noundef %23)
  %25 = load i32, ptr %6, align 4
  store i32 %25, ptr %5, align 4
  br label %26

26:                                               ; preds = %16
  %27 = load ptr, ptr %3, align 8
  %28 = load i32, ptr %6, align 4
  %29 = call zeroext i1 @tvb_offset_exists(ptr noundef %27, i32 noundef %28)
  br i1 %29, label %30, label %33

30:                                               ; preds = %26
  %31 = load i32, ptr %7, align 4
  %32 = icmp sgt i32 %31, 0
  br label %33

33:                                               ; preds = %30, %26
  %34 = phi i1 [ false, %26 ], [ %32, %30 ]
  br i1 %34, label %16, label %35, !llvm.loop !20

35:                                               ; preds = %33
  br label %36

36:                                               ; preds = %35, %2
  call void @llvm.lifetime.end.p0(i64 8, ptr %8) #12
  call void @llvm.lifetime.end.p0(i64 4, ptr %7) #12
  call void @llvm.lifetime.end.p0(i64 4, ptr %6) #12
  call void @llvm.lifetime.end.p0(i64 4, ptr %5) #12
  ret void
}