; Function Attrs: null_pointer_is_valid sspstrong uwtable
define internal fastcc void @tvb_raw_text_add(ptr noundef %0, ptr noundef %1) unnamed_addr #0 {
  %3 = alloca i32, align 4
  call void @llvm.lifetime.start.p0(i64 4, ptr nonnull %3) #11
  %.not = icmp eq ptr %1, null
  br i1 %.not, label %.loopexit, label %4

4:                                                ; preds = %2
  %5 = load i32, ptr @ett_megaco_raw_text, align 4
  %6 = tail call ptr @proto_tree_add_subtree(ptr noundef nonnull %1, ptr noundef %0, i32 noundef 0, i32 noundef -1, i32 noundef %5, ptr noundef null, ptr noundef nonnull @.str.351)
  br label %7

7:                                                ; preds = %7, %4
  %.0 = phi i32 [ 0, %4 ], [ %10, %7 ]
  %8 = call i32 @tvb_find_line_end(ptr noundef %0, i32 noundef %.0, i32 noundef -1, ptr noundef nonnull %3, i1 noundef zeroext false)
  %9 = call ptr @proto_tree_add_format_wsp_text(ptr noundef %6, ptr noundef %0, i32 noundef %.0, i32 noundef %8)
  %10 = load i32, ptr %3, align 4
  %11 = call zeroext i1 @tvb_offset_exists(ptr noundef %0, i32 noundef %10)
  %12 = icmp sgt i32 %8, 0
  %13 = and i1 %12, %11
  br i1 %13, label %7, label %.loopexit, !llvm.loop !21

.loopexit:                                        ; preds = %7, %2
  call void @llvm.lifetime.end.p0(i64 4, ptr nonnull %3) #11
  ret void
}